target datalayout = "e-m:e-p270:32:32-p271:32:32-p272:64:64-i64:64-i128:128-f80:128-n8:16:32:64-S128"
target triple = "x86_64-pc-linux-gnu"

%union.pthread_mutex_t = type { %struct.__pthread_mutex_s }
%struct.__pthread_mutex_s = type { i32, i32, i32, i32, i32, i16, i16, %struct.__pthread_internal_list }
%struct.__pthread_internal_list = type { ptr, ptr }
%union.pthread_cond_t = type { %struct.__pthread_cond_s }
%struct.__pthread_cond_s = type { %union.__atomic_wide_counter, %union.__atomic_wide_counter, [2 x i32], [2 x i32], i32, i32, [2 x i32] }
%union.__atomic_wide_counter = type { i64 }
%"class.boost::pthread::pthread_mutex_scoped_lock" = type <{ ptr, i8, [7 x i8] }>
%"struct.boost::once_flag" = type { i32 }
%"class.boost::atomics::detail::base_atomic_common" = type { i32 }

@_ZN5boost13thread_detailL10once_mutexE = internal global %union.pthread_mutex_t zeroinitializer, align 8
@_ZN5boost13thread_detailL7once_cvE = internal global %union.pthread_cond_t zeroinitializer, align 8

; Function Attrs: alwaysinline mustprogress nounwind uwtable
define linkonce_odr hidden noundef i32 @_ZN5boost5posix20pthread_mutex_unlockEP15pthread_mutex_t(ptr noundef %0) #3 comdat {
  %2 = alloca ptr, align 8
  %3 = alloca i32, align 4
  store ptr %0, ptr %2, align 8, !tbaa !3
  call void @llvm.lifetime.start.p0(i64 4, ptr %3) #8
  br label %4

4:                                                ; preds = %7, %1
  %5 = load ptr, ptr %2, align 8, !tbaa !3
  %6 = call i32 @pthread_mutex_unlock(ptr noundef %5) #8
  store i32 %6, ptr %3, align 4, !tbaa !7
  br label %7

7:                                                ; preds = %4
  %8 = load i32, ptr %3, align 4, !tbaa !7
  %9 = icmp eq i32 %8, 4
  br i1 %9, label %4, label %10, !llvm.loop !21

10:                                               ; preds = %7
  %11 = load i32, ptr %3, align 4, !tbaa !7
  call void @llvm.lifetime.end.p0(i64 4, ptr %3) #8
  ret i32 %11
}

; Function Attrs: alwaysinline mustprogress nounwind uwtable
define linkonce_odr hidden noundef i32 @_ZN5boost7atomics6detail27convert_memory_order_to_gccENS_12memory_orderE(i32 noundef %0) #3 comdat {
  %2 = alloca i32, align 4
  store i32 %0, ptr %2, align 4, !tbaa !11
  %3 = load i32, ptr %2, align 4, !tbaa !11
  %4 = icmp eq i32 %3, 0
  br i1 %4, label %5, label %6

5:                                                ; preds = %1
  br label %28

6:                                                ; preds = %1
  %7 = load i32, ptr %2, align 4, !tbaa !11
  %8 = icmp eq i32 %7, 1
  br i1 %8, label %9, label %10

9:                                                ; preds = %6
  br label %26

10:                                               ; preds = %6
  %11 = load i32, ptr %2, align 4, !tbaa !11
  %12 = icmp eq i32 %11, 2
  br i1 %12, label %13, label %14

13:                                               ; preds = %10
  br label %24

14:                                               ; preds = %10
  %15 = load i32, ptr %2, align 4, !tbaa !11
  %16 = icmp eq i32 %15, 4
  br i1 %16, label %17, label %18

17:                                               ; preds = %14
  br label %22

18:                                               ; preds = %14
  %19 = load i32, ptr %2, align 4, !tbaa !11
  %20 = icmp eq i32 %19, 6
  %21 = select i1 %20, i32 4, i32 5
  br label %22

22:                                               ; preds = %18, %17
  %23 = phi i32 [ 3, %17 ], [ %21, %18 ]
  br label %24

24:                                               ; preds = %22, %13
  %25 = phi i32 [ 2, %13 ], [ %23, %22 ]
  br label %26

26:                                               ; preds = %24, %9
  %27 = phi i32 [ 1, %9 ], [ %25, %24 ]
  br label %28

28:                                               ; preds = %26, %5
  %29 = phi i32 [ 0, %5 ], [ %27, %26 ]
  ret i32 %29
}

; Function Attrs: mustprogress nounwind uwtable
define linkonce_odr hidden void @_ZN5boost7pthread25pthread_mutex_scoped_lock6unlockEv(ptr noundef nonnull align 8 dereferenceable(9) %0) #0 comdat align 2 personality ptr @__gxx_personality_v0 {
  %2 = alloca ptr, align 8
  store ptr %0, ptr %2, align 8, !tbaa !3
  %3 = load ptr, ptr %2, align 8
  %4 = getelementptr inbounds nuw %"class.boost::pthread::pthread_mutex_scoped_lock", ptr %3, i32 0, i32 0
  %5 = load ptr, ptr %4, align 8, !tbaa !13
  %6 = invoke noundef i32 @_ZN5boost5posix20pthread_mutex_unlockEP15pthread_mutex_t(ptr noundef %5)
          to label %7 unwind label %9

7:                                                ; preds = %1
  %8 = getelementptr inbounds nuw %"class.boost::pthread::pthread_mutex_scoped_lock", ptr %3, i32 0, i32 1
  store i8 0, ptr %8, align 8, !tbaa !16
  ret void

9:                                                ; preds = %1
  %10 = landingpad { ptr, i32 }
          catch ptr null
  %11 = extractvalue { ptr, i32 } %10, 0
  call void @__clang_call_terminate(ptr %11) #9
  unreachable
}

; Function Attrs: alwaysinline mustprogress nounwind uwtable
define linkonce_odr hidden void @_ZN5boost7atomics6detail26core_operations_gcc_atomicILm4ELb0ELb0EE5storeERVjjNS_12memory_orderE(ptr noundef nonnull align 4 dereferenceable(4) %0, i32 noundef %1, i32 noundef %2) #3 comdat align 2 {
  %4 = alloca ptr, align 8
  %5 = alloca i32, align 4
  %6 = alloca i32, align 4
  %7 = alloca i32, align 4
  store ptr %0, ptr %4, align 8, !tbaa !3
  store i32 %1, ptr %5, align 4, !tbaa !22
  store i32 %2, ptr %6, align 4, !tbaa !11
  %8 = load ptr, ptr %4, align 8, !tbaa !3
  %9 = load i32, ptr %6, align 4, !tbaa !11
  %10 = call noundef i32 @_ZN5boost7atomics6detail27convert_memory_order_to_gccENS_12memory_orderE(i32 noundef %9) #8
  %11 = load i32, ptr %5, align 4, !tbaa !22
  store i32 %11, ptr %7, align 4, !tbaa !22
  switch i32 %10, label %12 [
    i32 3, label %14
    i32 5, label %16
  ]

12:                                               ; preds = %3
  %13 = load i32, ptr %7, align 4
  store atomic volatile i32 %13, ptr %8 monotonic, align 4
  br label %18

14:                                               ; preds = %3
  %15 = load i32, ptr %7, align 4
  store atomic volatile i32 %15, ptr %8 release, align 4
  br label %18

16:                                               ; preds = %3
  %17 = load i32, ptr %7, align 4
  store atomic volatile i32 %17, ptr %8 seq_cst, align 4
  br label %18

18:                                               ; preds = %16, %14, %12
  ret void
}

; Function Attrs: alwaysinline mustprogress nounwind uwtable
define linkonce_odr hidden noundef nonnull align 4 dereferenceable(4) ptr @_ZNV5boost7atomics6detail18base_atomic_commonIjLb0ELb0EE7storageEv(ptr noundef nonnull align 4 dereferenceable(4) %0) #3 comdat align 2 {
  %2 = alloca ptr, align 8
  store ptr %0, ptr %2, align 8, !tbaa !3
  %3 = load ptr, ptr %2, align 8
  %4 = getelementptr inbounds nuw %"class.boost::atomics::detail::base_atomic_common", ptr %3, i32 0, i32 0
  ret ptr %4
}

; Function Attrs: alwaysinline mustprogress nounwind uwtable
define linkonce_odr hidden noundef i32 @_ZN5boost5posix18pthread_mutex_lockEP15pthread_mutex_t(ptr noundef %0) #3 comdat {
  %2 = alloca ptr, align 8
  %3 = alloca i32, align 4
  store ptr %0, ptr %2, align 8, !tbaa !3
  call void @llvm.lifetime.start.p0(i64 4, ptr %3) #8
  br label %4

4:                                                ; preds = %7, %1
  %5 = load ptr, ptr %2, align 8, !tbaa !3
  %6 = call i32 @pthread_mutex_lock(ptr noundef %5) #8
  store i32 %6, ptr %3, align 4, !tbaa !7
  br label %7

7:                                                ; preds = %4
  %8 = load i32, ptr %3, align 4, !tbaa !7
  %9 = icmp eq i32 %8, 4
  br i1 %9, label %4, label %10, !llvm.loop !20

10:                                               ; preds = %7
  %11 = load i32, ptr %3, align 4, !tbaa !7
  call void @llvm.lifetime.end.p0(i64 4, ptr %3) #8
  ret i32 %11
}

; Function Attrs: noinline noreturn nounwind uwtable
define linkonce_odr hidden void @__clang_call_terminate(ptr noundef %0) #5 comdat {
  %2 = call ptr @__cxa_begin_catch(ptr %0) #8
  call void @_ZSt9terminatev() #9
  unreachable
}

; Function Attrs: alwaysinline mustprogress nounwind uwtable
define linkonce_odr hidden noundef i32 @_ZN5boost5posix22pthread_cond_broadcastEP14pthread_cond_t(ptr noundef %0) #3 comdat {
  %2 = alloca ptr, align 8
  store ptr %0, ptr %2, align 8, !tbaa !3
  %3 = load ptr, ptr %2, align 8, !tbaa !3
  %4 = call i32 @pthread_cond_broadcast(ptr noundef %3) #8
  ret i32 %4
}

; Function Attrs: mustprogress nounwind uwtable
define linkonce_odr hidden void @_ZN5boost7pthread25pthread_mutex_scoped_lockD2Ev(ptr noundef nonnull align 8 dereferenceable(9) %0) unnamed_addr #0 comdat align 2 {
  %2 = alloca ptr, align 8
  store ptr %0, ptr %2, align 8, !tbaa !3
  %3 = load ptr, ptr %2, align 8
  %4 = getelementptr inbounds nuw %"class.boost::pthread::pthread_mutex_scoped_lock", ptr %3, i32 0, i32 1
  %5 = load i8, ptr %4, align 8, !tbaa !16, !range !18, !noundef !19
  %6 = trunc i8 %5 to i1
  br i1 %6, label %7, label %8

7:                                                ; preds = %1
  call void @_ZN5boost7pthread25pthread_mutex_scoped_lock6unlockEv(ptr noundef nonnull align 8 dereferenceable(9) %3) #8
  br label %8

8:                                                ; preds = %7, %1
  ret void
}

; Function Attrs: alwaysinline mustprogress nounwind uwtable
define linkonce_odr hidden void @_ZNV5boost7atomics6detail11base_atomicIjiLb0EE5storeEjNS_12memory_orderE(ptr noundef nonnull align 4 dereferenceable(4) %0, i32 noundef %1, i32 noundef %2) #3 comdat align 2 {
  %4 = alloca ptr, align 8
  %5 = alloca i32, align 4
  %6 = alloca i32, align 4
  store ptr %0, ptr %4, align 8, !tbaa !3
  store i32 %1, ptr %5, align 4, !tbaa !7
  store i32 %2, ptr %6, align 4, !tbaa !11
  %7 = load ptr, ptr %4, align 8
  %8 = call noundef nonnull align 4 dereferenceable(4) ptr @_ZNV5boost7atomics6detail18base_atomic_commonIjLb0ELb0EE7storageEv(ptr noundef nonnull align 4 dereferenceable(4) %7) #8
  %9 = load i32, ptr %5, align 4, !tbaa !7
  %10 = load i32, ptr %6, align 4, !tbaa !11
  call void @_ZN5boost7atomics6detail26core_operations_gcc_atomicILm4ELb0ELb0EE5storeERVjjNS_12memory_orderE(ptr noundef nonnull align 4 dereferenceable(4) %8, i32 noundef %9, i32 noundef %10) #8
  ret void
}

; Function Attrs: mustprogress nounwind uwtable
define linkonce_odr hidden void @_ZN5boost7pthread25pthread_mutex_scoped_lockC2EP15pthread_mutex_t(ptr noundef nonnull align 8 dereferenceable(9) %0, ptr noundef %1) unnamed_addr #0 comdat align 2 personality ptr @__gxx_personality_v0 {
  %3 = alloca ptr, align 8
  %4 = alloca ptr, align 8
  store ptr %0, ptr %3, align 8, !tbaa !3
  store ptr %1, ptr %4, align 8, !tbaa !3
  %5 = load ptr, ptr %3, align 8
  %6 = getelementptr inbounds nuw %"class.boost::pthread::pthread_mutex_scoped_lock", ptr %5, i32 0, i32 0
  %7 = load ptr, ptr %4, align 8, !tbaa !3
  store ptr %7, ptr %6, align 8, !tbaa !13
  %8 = getelementptr inbounds nuw %"class.boost::pthread::pthread_mutex_scoped_lock", ptr %5, i32 0, i32 1
  store i8 1, ptr %8, align 8, !tbaa !16
  %9 = getelementptr inbounds nuw %"class.boost::pthread::pthread_mutex_scoped_lock", ptr %5, i32 0, i32 0
  %10 = load ptr, ptr %9, align 8, !tbaa !13
  %11 = invoke noundef i32 @_ZN5boost5posix18pthread_mutex_lockEP15pthread_mutex_t(ptr noundef %10)
          to label %12 unwind label %13

12:                                               ; preds = %2
  ret void

13:                                               ; preds = %2
  %14 = landingpad { ptr, i32 }
          catch ptr null
  %15 = extractvalue { ptr, i32 } %14, 0
  call void @__clang_call_terminate(ptr %15) #9
  unreachable
}

; Function Attrs: inlinehint mustprogress nounwind uwtable
define linkonce_odr hidden noundef nonnull align 4 dereferenceable(4) ptr @_ZN5boost13thread_detail18get_atomic_storageERNS_9once_flagE(ptr noundef nonnull align 4 dereferenceable(4) %0) #2 comdat {
  %2 = alloca ptr, align 8
  store ptr %0, ptr %2, align 8, !tbaa !3
  %3 = load ptr, ptr %2, align 8, !tbaa !3
  %4 = getelementptr inbounds nuw %"struct.boost::once_flag", ptr %3, i32 0, i32 0
  ret ptr %4
}

; Function Attrs: mustprogress nounwind uwtable
define void @_ZN5boost13thread_detail20rollback_once_regionERNS_9once_flagE(ptr noundef nonnull align 4 dereferenceable(4) %0) #0 personality ptr @__gxx_personality_v0 {
  %2 = alloca ptr, align 8
  %3 = alloca ptr, align 8
  %4 = alloca %"class.boost::pthread::pthread_mutex_scoped_lock", align 8
  store ptr %0, ptr %2, align 8, !tbaa !3
  call void @llvm.lifetime.start.p0(i64 8, ptr %3) #8
  %5 = load ptr, ptr %2, align 8, !tbaa !3
  %6 = call noundef nonnull align 4 dereferenceable(4) ptr @_ZN5boost13thread_detail18get_atomic_storageERNS_9once_flagE(ptr noundef nonnull align 4 dereferenceable(4) %5) #8
  store ptr %6, ptr %3, align 8, !tbaa !3
  call void @llvm.lifetime.start.p0(i64 16, ptr %4) #8
  call void @_ZN5boost7pthread25pthread_mutex_scoped_lockC2EP15pthread_mutex_t(ptr noundef nonnull align 8 dereferenceable(9) %4, ptr noundef @_ZN5boost13thread_detailL10once_mutexE) #8
  %7 = load ptr, ptr %3, align 8, !tbaa !3
  call void @_ZNV5boost7atomics6detail11base_atomicIjiLb0EE5storeEjNS_12memory_orderE(ptr noundef nonnull align 4 dereferenceable(4) %7, i32 noundef 0, i32 noundef 4) #8
  call void @_ZN5boost7pthread25pthread_mutex_scoped_lockD2Ev(ptr noundef nonnull align 8 dereferenceable(9) %4) #8
  call void @llvm.lifetime.end.p0(i64 16, ptr %4) #8
  %8 = invoke noundef i32 @_ZN5boost5posix22pthread_cond_broadcastEP14pthread_cond_t(ptr noundef @_ZN5boost13thread_detailL7once_cvE)
          to label %9 unwind label %10

9:                                                ; preds = %1
  call void @llvm.lifetime.end.p0(i64 8, ptr %3) #8
  ret void

10:                                               ; preds = %1
  %11 = landingpad { ptr, i32 }
          catch ptr null
  %12 = extractvalue { ptr, i32 } %11, 0
  call void @__clang_call_terminate(ptr %12) #9
  unreachable
}